; ModuleID = '6/895.c'
source_filename = "6/895.c"
target datalayout = "e-m:e-p270:32:32-p271:32:32-p272:64:64-i64:64-f80:128-n8:16:32:64-S128"
target triple = "x86_64-pc-linux-gnu"

@.str = private unnamed_addr constant [3 x i8] c"%d\00", align 1
@.str.1 = private unnamed_addr constant [6 x i8] c"%d %d\00", align 1
@.str.2 = private unnamed_addr constant [4 x i8] c"%d\0A\00", align 1

; Function Attrs: noinline nounwind uwtable
define dso_local void @main() #0 {
  %1 = alloca i32, align 4
  %2 = alloca i32, align 4
  %3 = alloca [100 x [100 x i32]], align 16
  %4 = alloca i32, align 4
  %5 = alloca i32, align 4
  %6 = alloca i32, align 4
  %7 = alloca i32, align 4
  %8 = call i32 (i8*, ...) @__isoc99_scanf(i8* getelementptr inbounds ([3 x i8], [3 x i8]* @.str, i64 0, i64 0), i32* %7)
  br label %9

9:                                                ; preds = %133, %0
  %10 = load i32, i32* %7, align 4
  %11 = add nsw i32 %10, -1
  store i32 %11, i32* %7, align 4
  %12 = icmp ne i32 %10, 0
  br i1 %12, label %13, label %136

13:                                               ; preds = %9
  store i32 0, i32* %6, align 4
  %14 = call i32 (i8*, ...) @__isoc99_scanf(i8* getelementptr inbounds ([6 x i8], [6 x i8]* @.str.1, i64 0, i64 0), i32* %1, i32* %2)
  store i32 0, i32* %4, align 4
  br label %15

15:                                               ; preds = %36, %13
  %16 = load i32, i32* %4, align 4
  %17 = load i32, i32* %1, align 4
  %18 = icmp slt i32 %16, %17
  br i1 %18, label %19, label %39

19:                                               ; preds = %15
  store i32 0, i32* %5, align 4
  br label %20

20:                                               ; preds = %32, %19
  %21 = load i32, i32* %5, align 4
  %22 = load i32, i32* %2, align 4
  %23 = icmp slt i32 %21, %22
  br i1 %23, label %24, label %35

24:                                               ; preds = %20
  %25 = load i32, i32* %4, align 4
  %26 = sext i32 %25 to i64
  %27 = getelementptr inbounds [100 x [100 x i32]], [100 x [100 x i32]]* %3, i64 0, i64 %26
  %28 = load i32, i32* %5, align 4
  %29 = sext i32 %28 to i64
  %30 = getelementptr inbounds [100 x i32], [100 x i32]* %27, i64 0, i64 %29
  %31 = call i32 (i8*, ...) @__isoc99_scanf(i8* getelementptr inbounds ([3 x i8], [3 x i8]* @.str, i64 0, i64 0), i32* %30)
  br label %32

32:                                               ; preds = %24
  %33 = load i32, i32* %5, align 4
  %34 = add nsw i32 %33, 1
  store i32 %34, i32* %5, align 4
  br label %20

35:                                               ; preds = %20
  br label %36

36:                                               ; preds = %35
  %37 = load i32, i32* %4, align 4
  %38 = add nsw i32 %37, 1
  store i32 %38, i32* %4, align 4
  br label %15

39:                                               ; preds = %15
  %40 = load i32, i32* %1, align 4
  %41 = icmp sgt i32 %40, 1
  br i1 %41, label %42, label %68

42:                                               ; preds = %39
  store i32 0, i32* %4, align 4
  br label %43

43:                                               ; preds = %64, %42
  %44 = load i32, i32* %4, align 4
  %45 = load i32, i32* %1, align 4
  %46 = icmp slt i32 %44, %45
  br i1 %46, label %47, label %67

47:                                               ; preds = %43
  %48 = load i32, i32* %4, align 4
  %49 = sext i32 %48 to i64
  %50 = getelementptr inbounds [100 x [100 x i32]], [100 x [100 x i32]]* %3, i64 0, i64 %49
  %51 = getelementptr inbounds [100 x i32], [100 x i32]* %50, i64 0, i64 0
  %52 = load i32, i32* %51, align 16
  %53 = load i32, i32* %4, align 4
  %54 = sext i32 %53 to i64
  %55 = getelementptr inbounds [100 x [100 x i32]], [100 x [100 x i32]]* %3, i64 0, i64 %54
  %56 = load i32, i32* %2, align 4
  %57 = sub nsw i32 %56, 1
  %58 = sext i32 %57 to i64
  %59 = getelementptr inbounds [100 x i32], [100 x i32]* %55, i64 0, i64 %58
  %60 = load i32, i32* %59, align 4
  %61 = add nsw i32 %52, %60
  %62 = load i32, i32* %6, align 4
  %63 = add nsw i32 %62, %61
  store i32 %63, i32* %6, align 4
  br label %64

64:                                               ; preds = %47
  %65 = load i32, i32* %4, align 4
  %66 = add nsw i32 %65, 1
  store i32 %66, i32* %4, align 4
  br label %43

67:                                               ; preds = %43
  br label %85

68:                                               ; preds = %39
  store i32 0, i32* %4, align 4
  br label %69

69:                                               ; preds = %81, %68
  %70 = load i32, i32* %4, align 4
  %71 = load i32, i32* %1, align 4
  %72 = icmp slt i32 %70, %71
  br i1 %72, label %73, label %84

73:                                               ; preds = %69
  %74 = load i32, i32* %4, align 4
  %75 = sext i32 %74 to i64
  %76 = getelementptr inbounds [100 x [100 x i32]], [100 x [100 x i32]]* %3, i64 0, i64 %75
  %77 = getelementptr inbounds [100 x i32], [100 x i32]* %76, i64 0, i64 0
  %78 = load i32, i32* %77, align 16
  %79 = load i32, i32* %6, align 4
  %80 = add nsw i32 %79, %78
  store i32 %80, i32* %6, align 4
  br label %81

81:                                               ; preds = %73
  %82 = load i32, i32* %4, align 4
  %83 = add nsw i32 %82, 1
  store i32 %83, i32* %4, align 4
  br label %69

84:                                               ; preds = %69
  br label %85

85:                                               ; preds = %84, %67
  %86 = load i32, i32* %2, align 4
  %87 = icmp sgt i32 %86, 1
  br i1 %87, label %88, label %115

88:                                               ; preds = %85
  store i32 1, i32* %4, align 4
  br label %89

89:                                               ; preds = %111, %88
  %90 = load i32, i32* %4, align 4
  %91 = load i32, i32* %2, align 4
  %92 = sub nsw i32 %91, 1
  %93 = icmp slt i32 %90, %92
  br i1 %93, label %94, label %114

94:                                               ; preds = %89
  %95 = getelementptr inbounds [100 x [100 x i32]], [100 x [100 x i32]]* %3, i64 0, i64 0
  %96 = load i32, i32* %4, align 4
  %97 = sext i32 %96 to i64
  %98 = getelementptr inbounds [100 x i32], [100 x i32]* %95, i64 0, i64 %97
  %99 = load i32, i32* %98, align 4
  %100 = load i32, i32* %1, align 4
  %101 = sub nsw i32 %100, 1
  %102 = sext i32 %101 to i64
  %103 = getelementptr inbounds [100 x [100 x i32]], [100 x [100 x i32]]* %3, i64 0, i64 %102
  %104 = load i32, i32* %4, align 4
  %105 = sext i32 %104 to i64
  %106 = getelementptr inbounds [100 x i32], [100 x i32]* %103, i64 0, i64 %105
  %107 = load i32, i32* %106, align 4
  %108 = add nsw i32 %99, %107
  %109 = load i32, i32* %6, align 4
  %110 = add nsw i32 %109, %108
  store i32 %110, i32* %6, align 4
  br label %111

111:                                              ; preds = %94
  %112 = load i32, i32* %4, align 4
  %113 = add nsw i32 %112, 1
  store i32 %113, i32* %4, align 4
  br label %89

114:                                              ; preds = %89
  br label %133

115:                                              ; preds = %85
  store i32 1, i32* %4, align 4
  br label %116

116:                                              ; preds = %129, %115
  %117 = load i32, i32* %4, align 4
  %118 = load i32, i32* %2, align 4
  %119 = sub nsw i32 %118, 1
  %120 = icmp slt i32 %117, %119
  br i1 %120, label %121, label %132

121:                                              ; preds = %116
  %122 = getelementptr inbounds [100 x [100 x i32]], [100 x [100 x i32]]* %3, i64 0, i64 0
  %123 = load i32, i32* %4, align 4
  %124 = sext i32 %123 to i64
  %125 = getelementptr inbounds [100 x i32], [100 x i32]* %122, i64 0, i64 %124
  %126 = load i32, i32* %125, align 4
  %127 = load i32, i32* %6, align 4
  %128 = add nsw i32 %127, %126
  store i32 %128, i32* %6, align 4
  br label %129

129:                                              ; preds = %121
  %130 = load i32, i32* %4, align 4
  %131 = add nsw i32 %130, 1
  store i32 %131, i32* %4, align 4
  br label %116

132:                                              ; preds = %116
  br label %133

133:                                              ; preds = %132, %114
  %134 = load i32, i32* %6, align 4
  %135 = call i32 (i8*, ...) @printf(i8* getelementptr inbounds ([4 x i8], [4 x i8]* @.str.2, i64 0, i64 0), i32 %134)
  br label %9

136:                                              ; preds = %9
  ret void
}

declare dso_local i32 @__isoc99_scanf(i8*, ...) #1

declare dso_local i32 @printf(i8*, ...) #1


!llvm.module.flags = !{!0}
!llvm.ident = !{!1}

!0 = !{i32 1, !"wchar_size", i32 4}
!1 = !{!"clang version 10.0.0-4ubuntu1 "}
